target datalayout = "e-m:e-p270:32:32-p271:32:32-p272:64:64-i64:64-i128:128-f80:128-n8:16:32:64-S128"
target triple = "x86_64-pc-linux-gnu"

%struct.FunctionCallInfoBaseData = type { ptr, ptr, ptr, i32, i8, i16, [0 x %struct.NullableDatum] }
%struct.NullableDatum = type { i64, i8 }
%struct.PgBackendStatus = type { i32, i32, i32, i64, i64, i64, i64, i32, i32, %struct.SockAddr, ptr, i8, ptr, i8, ptr, i32, ptr, ptr, i32, i32, [20 x i64], i64 }
%struct.SockAddr = type { %struct.sockaddr_storage, i32 }
%struct.sockaddr_storage = type { i16, [118 x i8], i64 }

; Function Attrs: inlinehint nounwind uwtable
define internal i64 @Int64GetDatum(i64 noundef %0) #2 {
  %2 = alloca i64, align 8
  store i64 %0, ptr %2, align 8
  %3 = load i64, ptr %2, align 8
  ret i64 %3
}

; Function Attrs: inlinehint nounwind uwtable
define internal i64 @TimestampTzGetDatum(i64 noundef %0) #2 {
  %2 = alloca i64, align 8
  store i64 %0, ptr %2, align 8
  %3 = load i64, ptr %2, align 8
  %4 = call i64 @Int64GetDatum(i64 noundef %3)
  ret i64 %4
}

; Function Attrs: inlinehint nounwind uwtable
define internal i32 @DatumGetInt32(i64 noundef %0) #2 {
  %2 = alloca i64, align 8
  store i64 %0, ptr %2, align 8
  %3 = load i64, ptr %2, align 8
  %4 = trunc i64 %3 to i32
  ret i32 %4
}

; Function Attrs: nounwind uwtable
define dso_local i64 @pg_stat_get_backend_start(ptr noundef %0) #0 {
  %2 = alloca i64, align 8
  %3 = alloca ptr, align 8
  %4 = alloca i32, align 4
  %5 = alloca i64, align 8
  %6 = alloca ptr, align 8
  %7 = alloca i32, align 4
  store ptr %0, ptr %3, align 8
  call void @llvm.lifetime.start.p0(i64 4, ptr %4) #10
  %8 = load ptr, ptr %3, align 8
  %9 = getelementptr inbounds nuw %struct.FunctionCallInfoBaseData, ptr %8, i32 0, i32 6
  %10 = getelementptr inbounds [0 x %struct.NullableDatum], ptr %9, i64 0, i64 0
  %11 = getelementptr inbounds nuw %struct.NullableDatum, ptr %10, i32 0, i32 0
  %12 = load i64, ptr %11, align 8
  %13 = call i32 @DatumGetInt32(i64 noundef %12)
  store i32 %13, ptr %4, align 4
  call void @llvm.lifetime.start.p0(i64 8, ptr %5) #10
  call void @llvm.lifetime.start.p0(i64 8, ptr %6) #10
  %14 = load i32, ptr %4, align 4
  %15 = call ptr @pgstat_get_beentry_by_proc_number(i32 noundef %14)
  store ptr %15, ptr %6, align 8
  %16 = icmp eq ptr %15, null
  br i1 %16, label %17, label %23

17:                                               ; preds = %1
  br label %18

18:                                               ; preds = %17
  %19 = load ptr, ptr %3, align 8
  %20 = getelementptr inbounds nuw %struct.FunctionCallInfoBaseData, ptr %19, i32 0, i32 4
  store i8 1, ptr %20, align 4
  store i64 0, ptr %2, align 8
  store i32 1, ptr %7, align 4
  br label %54

21:                                               ; No predecessors!
  br label %22

22:                                               ; preds = %21
  br label %39

23:                                               ; preds = %1
  %24 = call i32 @GetUserId()
  %25 = call zeroext i1 @has_privs_of_role(i32 noundef %24, i32 noundef 3375)
  br i1 %25, label %38, label %26

26:                                               ; preds = %23
  %27 = call i32 @GetUserId()
  %28 = load ptr, ptr %6, align 8
  %29 = getelementptr inbounds nuw %struct.PgBackendStatus, ptr %28, i32 0, i32 8
  %30 = load i32, ptr %29, align 4
  %31 = call zeroext i1 @has_privs_of_role(i32 noundef %27, i32 noundef %30)
  br i1 %31, label %38, label %32

32:                                               ; preds = %26
  br label %33

33:                                               ; preds = %32
  %34 = load ptr, ptr %3, align 8
  %35 = getelementptr inbounds nuw %struct.FunctionCallInfoBaseData, ptr %34, i32 0, i32 4
  store i8 1, ptr %35, align 4
  store i64 0, ptr %2, align 8
  store i32 1, ptr %7, align 4
  br label %54

36:                                               ; No predecessors!
  br label %37

37:                                               ; preds = %36
  br label %38

38:                                               ; preds = %37, %26, %23
  br label %39

39:                                               ; preds = %38, %22
  %40 = load ptr, ptr %6, align 8
  %41 = getelementptr inbounds nuw %struct.PgBackendStatus, ptr %40, i32 0, i32 3
  %42 = load i64, ptr %41, align 8
  store i64 %42, ptr %5, align 8
  %43 = load i64, ptr %5, align 8
  %44 = icmp eq i64 %43, 0
  br i1 %44, label %45, label %51

45:                                               ; preds = %39
  br label %46

46:                                               ; preds = %45
  %47 = load ptr, ptr %3, align 8
  %48 = getelementptr inbounds nuw %struct.FunctionCallInfoBaseData, ptr %47, i32 0, i32 4
  store i8 1, ptr %48, align 4
  store i64 0, ptr %2, align 8
  store i32 1, ptr %7, align 4
  br label %54

49:                                               ; No predecessors!
  br label %50

50:                                               ; preds = %49
  br label %51

51:                                               ; preds = %50, %39
  %52 = load i64, ptr %5, align 8
  %53 = call i64 @TimestampTzGetDatum(i64 noundef %52)
  store i64 %53, ptr %2, align 8
  store i32 1, ptr %7, align 4
  br label %54

54:                                               ; preds = %51, %46, %33, %18
  call void @llvm.lifetime.end.p0(i64 8, ptr %6) #10
  call void @llvm.lifetime.end.p0(i64 8, ptr %5) #10
  call void @llvm.lifetime.end.p0(i64 4, ptr %4) #10
  %55 = load i64, ptr %2, align 8
  ret i64 %55
}