; Function Attrs: nounwind uwtable
define dso_local i64 @pg_stat_get_backend_start(ptr noundef captures(none) %0) local_unnamed_addr #0 {
  %2 = getelementptr inbounds nuw i8, ptr %0, i64 32
  %3 = load i64, ptr %2, align 8
  %4 = trunc i64 %3 to i32
  %5 = tail call ptr @pgstat_get_beentry_by_proc_number(i32 noundef %4) #9
  %6 = icmp eq ptr %5, null
  br i1 %6, label %.sink.split, label %7

7:                                                ; preds = %1
  %8 = tail call i32 @GetUserId() #9
  %9 = tail call zeroext i1 @has_privs_of_role(i32 noundef %8, i32 noundef 3375) #9
  br i1 %9, label %15, label %10

10:                                               ; preds = %7
  %11 = tail call i32 @GetUserId() #9
  %12 = getelementptr inbounds nuw i8, ptr %5, i64 52
  %13 = load i32, ptr %12, align 4
  %14 = tail call zeroext i1 @has_privs_of_role(i32 noundef %11, i32 noundef %13) #9
  br i1 %14, label %15, label %.sink.split

15:                                               ; preds = %7, %10
  %16 = getelementptr inbounds nuw i8, ptr %5, i64 16
  %17 = load i64, ptr %16, align 8
  %18 = icmp eq i64 %17, 0
  br i1 %18, label %.sink.split, label %20

.sink.split:                                      ; preds = %15, %10, %1
  %19 = getelementptr inbounds nuw i8, ptr %0, i64 28
  store i8 1, ptr %19, align 4
  br label %20

20:                                               ; preds = %.sink.split, %15
  %.0 = phi i64 [ %17, %15 ], [ 0, %.sink.split ]
  ret i64 %.0
}